target datalayout = "e-m:e-p270:32:32-p271:32:32-p272:64:64-i64:64-i128:128-f80:128-n8:16:32:64-S128"
target triple = "x86_64-unknown-linux-gnu"

%"class.node::crypto::ManagedEVPPKey" = type { %"class.node::MemoryRetainer", %"class.std::unique_ptr", %"class.std::shared_ptr" }
%"class.node::MemoryRetainer" = type { ptr }
%"class.std::unique_ptr" = type { %"struct.std::__uniq_ptr_data" }
%"struct.std::__uniq_ptr_data" = type { %"class.std::__uniq_ptr_impl" }
%"class.std::__uniq_ptr_impl" = type { %"class.std::tuple" }
%"class.std::tuple" = type { %"struct.std::_Tuple_impl" }
%"struct.std::_Tuple_impl" = type { %"struct.std::_Head_base.1" }
%"struct.std::_Head_base.1" = type { ptr }
%"class.std::shared_ptr" = type { %"class.std::__shared_ptr" }
%"class.std::__shared_ptr" = type { ptr, %"class.std::__shared_count" }
%"class.std::__shared_count" = type { ptr }

; Function Attrs: mustprogress nounwind uwtable
define linkonce_odr dso_local noundef nonnull align 8 dereferenceable(8) ptr @_ZNSt10_Head_baseILm0EP11evp_pkey_stLb0EE7_M_headERKS2_(ptr noundef nonnull align 8 dereferenceable(8) %__b) #4 comdat align 2 {
entry:
  %__b.addr = alloca ptr, align 8
  store ptr %__b, ptr %__b.addr, align 8
  %0 = load ptr, ptr %__b.addr, align 8
  %_M_head_impl = getelementptr inbounds %"struct.std::_Head_base.1", ptr %0, i32 0, i32 0
  ret ptr %_M_head_impl
}

; Function Attrs: mustprogress nounwind uwtable
define linkonce_odr dso_local noundef nonnull align 8 dereferenceable(8) ptr @_ZNSt11_Tuple_implILm0EJP11evp_pkey_stN4node15FunctionDeleterIS0_XadL_Z13EVP_PKEY_freeEEEEEE7_M_headERKS5_(ptr noundef nonnull align 8 dereferenceable(8) %__t) #4 comdat align 2 {
entry:
  %__t.addr = alloca ptr, align 8
  store ptr %__t, ptr %__t.addr, align 8
  %0 = load ptr, ptr %__t.addr, align 8
  %call = call noundef nonnull align 8 dereferenceable(8) ptr @_ZNSt10_Head_baseILm0EP11evp_pkey_stLb0EE7_M_headERKS2_(ptr noundef nonnull align 8 dereferenceable(8) %0) #3
  ret ptr %call
}

; Function Attrs: mustprogress nounwind uwtable
define linkonce_odr dso_local noundef nonnull align 8 dereferenceable(8) ptr @_ZSt12__get_helperILm0EP11evp_pkey_stJN4node15FunctionDeleterIS0_XadL_Z13EVP_PKEY_freeEEEEEERKT0_RKSt11_Tuple_implIXT_EJS5_DpT1_EE(ptr noundef nonnull align 8 dereferenceable(8) %__t) #4 comdat {
entry:
  %__t.addr = alloca ptr, align 8
  store ptr %__t, ptr %__t.addr, align 8
  %0 = load ptr, ptr %__t.addr, align 8
  %call = call noundef nonnull align 8 dereferenceable(8) ptr @_ZNSt11_Tuple_implILm0EJP11evp_pkey_stN4node15FunctionDeleterIS0_XadL_Z13EVP_PKEY_freeEEEEEE7_M_headERKS5_(ptr noundef nonnull align 8 dereferenceable(8) %0) #3
  ret ptr %call
}

; Function Attrs: mustprogress nounwind uwtable
define linkonce_odr dso_local noundef nonnull align 8 dereferenceable(8) ptr @_ZSt3getILm0EJP11evp_pkey_stN4node15FunctionDeleterIS0_XadL_Z13EVP_PKEY_freeEEEEEERKNSt13tuple_elementIXT_ESt5tupleIJDpT0_EEE4typeERKS9_(ptr noundef nonnull align 8 dereferenceable(8) %__t) #4 comdat {
entry:
  %__t.addr = alloca ptr, align 8
  store ptr %__t, ptr %__t.addr, align 8
  %0 = load ptr, ptr %__t.addr, align 8
  %call = call noundef nonnull align 8 dereferenceable(8) ptr @_ZSt12__get_helperILm0EP11evp_pkey_stJN4node15FunctionDeleterIS0_XadL_Z13EVP_PKEY_freeEEEEEERKT0_RKSt11_Tuple_implIXT_EJS5_DpT1_EE(ptr noundef nonnull align 8 dereferenceable(8) %0) #3
  ret ptr %call
}

; Function Attrs: mustprogress nounwind uwtable
define linkonce_odr dso_local noundef ptr @_ZNKSt15__uniq_ptr_implI11evp_pkey_stN4node15FunctionDeleterIS0_XadL_Z13EVP_PKEY_freeEEEEE6_M_ptrEv(ptr noundef nonnull align 8 dereferenceable(8) %this) #4 comdat align 2 {
entry:
  %this.addr = alloca ptr, align 8
  store ptr %this, ptr %this.addr, align 8
  %this1 = load ptr, ptr %this.addr, align 8
  %_M_t = getelementptr inbounds %"class.std::__uniq_ptr_impl", ptr %this1, i32 0, i32 0
  %call = call noundef nonnull align 8 dereferenceable(8) ptr @_ZSt3getILm0EJP11evp_pkey_stN4node15FunctionDeleterIS0_XadL_Z13EVP_PKEY_freeEEEEEERKNSt13tuple_elementIXT_ESt5tupleIJDpT0_EEE4typeERKS9_(ptr noundef nonnull align 8 dereferenceable(8) %_M_t) #3
  %0 = load ptr, ptr %call, align 8
  ret ptr %0
}

; Function Attrs: mustprogress nounwind uwtable
define linkonce_odr dso_local noundef ptr @_ZNKSt10unique_ptrI11evp_pkey_stN4node15FunctionDeleterIS0_XadL_Z13EVP_PKEY_freeEEEEE3getEv(ptr noundef nonnull align 8 dereferenceable(8) %this) #4 comdat align 2 {
entry:
  %this.addr = alloca ptr, align 8
  store ptr %this, ptr %this.addr, align 8
  %this1 = load ptr, ptr %this.addr, align 8
  %_M_t = getelementptr inbounds %"class.std::unique_ptr", ptr %this1, i32 0, i32 0
  %call = call noundef ptr @_ZNKSt15__uniq_ptr_implI11evp_pkey_stN4node15FunctionDeleterIS0_XadL_Z13EVP_PKEY_freeEEEEE6_M_ptrEv(ptr noundef nonnull align 8 dereferenceable(8) %_M_t) #3
  ret ptr %call
}

; Function Attrs: mustprogress nounwind uwtable
define linkonce_odr dso_local noundef zeroext i1 @_ZNKSt10unique_ptrI11evp_pkey_stN4node15FunctionDeleterIS0_XadL_Z13EVP_PKEY_freeEEEEEcvbEv(ptr noundef nonnull align 8 dereferenceable(8) %this) #4 comdat align 2 {
entry:
  %this.addr = alloca ptr, align 8
  store ptr %this, ptr %this.addr, align 8
  %this1 = load ptr, ptr %this.addr, align 8
  %call = call noundef ptr @_ZNKSt10unique_ptrI11evp_pkey_stN4node15FunctionDeleterIS0_XadL_Z13EVP_PKEY_freeEEEEE3getEv(ptr noundef nonnull align 8 dereferenceable(8) %this1) #3
  %cmp = icmp eq ptr %call, null
  %cond = select i1 %cmp, i1 false, i1 true
  ret i1 %cond
}

; Function Attrs: mustprogress nounwind uwtable
define dso_local noundef i64 @_ZNK4node6crypto14ManagedEVPPKey18size_of_public_keyEv(ptr noundef nonnull align 8 dereferenceable(32) %this) #4 align 2 {
entry:
  %this.addr = alloca ptr, align 8
  %len = alloca i64, align 8
  store ptr %this, ptr %this.addr, align 8
  %this1 = load ptr, ptr %this.addr, align 8
  store i64 0, ptr %len, align 8
  %pkey_ = getelementptr inbounds %"class.node::crypto::ManagedEVPPKey", ptr %this1, i32 0, i32 1
  %call = call noundef zeroext i1 @_ZNKSt10unique_ptrI11evp_pkey_stN4node15FunctionDeleterIS0_XadL_Z13EVP_PKEY_freeEEEEEcvbEv(ptr noundef nonnull align 8 dereferenceable(8) %pkey_) #3
  br i1 %call, label %land.lhs.true, label %cond.false

land.lhs.true:                                    ; preds = %entry
  %pkey_2 = getelementptr inbounds %"class.node::crypto::ManagedEVPPKey", ptr %this1, i32 0, i32 1
  %call3 = call noundef ptr @_ZNKSt10unique_ptrI11evp_pkey_stN4node15FunctionDeleterIS0_XadL_Z13EVP_PKEY_freeEEEEE3getEv(ptr noundef nonnull align 8 dereferenceable(8) %pkey_2) #3
  %call4 = call i32 @EVP_PKEY_get_raw_public_key(ptr noundef %call3, ptr noundef null, ptr noundef %len)
  %cmp = icmp eq i32 %call4, 1
  br i1 %cmp, label %cond.true, label %cond.false

cond.true:                                        ; preds = %land.lhs.true
  %0 = load i64, ptr %len, align 8
  br label %cond.end

cond.false:                                       ; preds = %land.lhs.true, %entry
  br label %cond.end

cond.end:                                         ; preds = %cond.false, %cond.true
  %cond = phi i64 [ %0, %cond.true ], [ 0, %cond.false ]
  ret i64 %cond
}